target datalayout = "e-m:e-p270:32:32-p271:32:32-p272:64:64-i64:64-i128:128-f80:128-n8:16:32:64-S128"
target triple = "x86_64-pc-linux-gnu"

%struct.SnapshotData = type { i32, i32, i32, ptr, i32, ptr, i32, i8, i8, i8, i32, i32, ptr, i32, i32, %struct.pairingheap_node, i64 }
%struct.pairingheap_node = type { ptr, ptr, ptr }
%struct.ScanKeyData = type { i32, i16, i16, i32, i32, %struct.FmgrInfo, i64 }
%struct.FmgrInfo = type { ptr, i32, i16, i8, i8, i8, ptr, ptr, ptr }
%struct.RelationData = type { %struct.RelFileLocator, ptr, i32, i32, i8, i8, i8, i8, i8, i32, i32, i32, i32, ptr, ptr, i32, %struct.LockInfoData, ptr, ptr, ptr, ptr, ptr, i8, ptr, ptr, ptr, ptr, ptr, ptr, i32, ptr, i8, ptr, ptr, i32, i8, i32, ptr, i8, ptr, ptr, ptr, ptr, ptr, ptr, ptr, i32, ptr, ptr, ptr, ptr, ptr, ptr, ptr, ptr, ptr, ptr, ptr, ptr, ptr, ptr, ptr, ptr, ptr, ptr, ptr, i32, i8, ptr }
%struct.RelFileLocator = type { i32, i32, i32 }
%struct.LockInfoData = type { %struct.LockRelId }
%struct.LockRelId = type { i32, i32 }

@.str.1 = private unnamed_addr constant [9 x i8] c"origin.c\00", align 1
@InterruptPending = external global i32, align 4
@.str.2 = private unnamed_addr constant [42 x i8] c"could not find free replication origin ID\00", align 1
@__func__.replorigin_create = private unnamed_addr constant [18 x i8] c"replorigin_create\00", align 1

; Function Attrs: inlinehint nounwind uwtable
define internal i64 @ObjectIdGetDatum(i32 noundef %0) #2 {
  %2 = alloca i32, align 4
  store i32 %0, ptr %2, align 4
  %3 = load i32, ptr %2, align 4
  %4 = zext i32 %3 to i64
  ret i64 %4
}

; Function Attrs: inlinehint nounwind uwtable
define internal i64 @PointerGetDatum(ptr noundef %0) #2 {
  %2 = alloca ptr, align 8
  store ptr %0, ptr %2, align 8
  %3 = load ptr, ptr %2, align 8
  %4 = ptrtoint ptr %3 to i64
  ret i64 %4
}

; Function Attrs: nounwind uwtable
define dso_local zeroext i16 @replorigin_create(ptr noundef %0) #0 {
  %2 = alloca ptr, align 8
  %3 = alloca i32, align 4
  %4 = alloca ptr, align 8
  %5 = alloca ptr, align 8
  %6 = alloca i64, align 8
  %7 = alloca %struct.SnapshotData, align 8
  %8 = alloca ptr, align 8
  %9 = alloca %struct.ScanKeyData, align 8
  %10 = alloca [2 x i8], align 1
  %11 = alloca [2 x i64], align 16
  %12 = alloca i8, align 1
  %13 = alloca i32, align 4
  store ptr %0, ptr %2, align 8
  call void @llvm.lifetime.start.p0(i64 4, ptr %3) #9
  call void @llvm.lifetime.start.p0(i64 8, ptr %4) #9
  store ptr null, ptr %4, align 8
  call void @llvm.lifetime.start.p0(i64 8, ptr %5) #9
  call void @llvm.lifetime.start.p0(i64 8, ptr %6) #9
  call void @llvm.lifetime.start.p0(i64 104, ptr %7) #9
  call void @llvm.lifetime.start.p0(i64 8, ptr %8) #9
  call void @llvm.lifetime.start.p0(i64 72, ptr %9) #9
  %14 = load ptr, ptr %2, align 8
  %15 = call ptr @cstring_to_text(ptr noundef %14)
  %16 = call i64 @PointerGetDatum(ptr noundef %15)
  store i64 %16, ptr %6, align 8
  %17 = getelementptr inbounds nuw %struct.SnapshotData, ptr %7, i32 0, i32 0
  store i32 4, ptr %17, align 8
  %18 = call ptr @table_open(i32 noundef 6000, i32 noundef 7)
  store ptr %18, ptr %5, align 8
  store i32 1, ptr %3, align 4
  br label %19

19:                                               ; preds = %63, %1
  %20 = load i32, ptr %3, align 4
  %21 = icmp ult i32 %20, 65535
  br i1 %21, label %22, label %66

22:                                               ; preds = %19
  call void @llvm.lifetime.start.p0(i64 2, ptr %10) #9
  call void @llvm.lifetime.start.p0(i64 16, ptr %11) #9
  call void @llvm.lifetime.start.p0(i64 1, ptr %12) #9
  br label %23

23:                                               ; preds = %22
  %24 = load volatile i32, ptr @InterruptPending, align 4
  %25 = icmp ne i32 %24, 0
  %26 = zext i1 %25 to i32
  %27 = sext i32 %26 to i64
  %28 = call i64 @llvm.expect.i64(i64 %27, i64 0)
  %29 = icmp ne i64 %28, 0
  br i1 %29, label %30, label %31

30:                                               ; preds = %23
  call void @ProcessInterrupts()
  br label %31

31:                                               ; preds = %30, %23
  br label %32

32:                                               ; preds = %31
  br label %33

33:                                               ; preds = %32
  %34 = load i32, ptr %3, align 4
  %35 = call i64 @ObjectIdGetDatum(i32 noundef %34)
  call void @ScanKeyInit(ptr noundef %9, i16 noundef signext 1, i16 noundef zeroext 3, i32 noundef 184, i64 noundef %35)
  %36 = load ptr, ptr %5, align 8
  %37 = call ptr @systable_beginscan(ptr noundef %36, i32 noundef 6001, i1 noundef zeroext true, ptr noundef %7, i32 noundef 1, ptr noundef %9)
  store ptr %37, ptr %8, align 8
  %38 = load ptr, ptr %8, align 8
  %39 = call ptr @systable_getnext(ptr noundef %38)
  %40 = icmp ne ptr %39, null
  %41 = zext i1 %40 to i8
  store i8 %41, ptr %12, align 1
  %42 = load ptr, ptr %8, align 8
  call void @systable_endscan(ptr noundef %42)
  %43 = load i8, ptr %12, align 1, !range !4, !noundef !5
  %44 = trunc i8 %43 to i1
  br i1 %44, label %59, label %45

45:                                               ; preds = %33
  call void @llvm.memset.p0.i64(ptr align 1 %10, i8 0, i64 2, i1 false)
  %46 = load i32, ptr %3, align 4
  %47 = call i64 @ObjectIdGetDatum(i32 noundef %46)
  %48 = getelementptr inbounds [2 x i64], ptr %11, i64 0, i64 0
  store i64 %47, ptr %48, align 16
  %49 = load i64, ptr %6, align 8
  %50 = getelementptr inbounds [2 x i64], ptr %11, i64 0, i64 1
  store i64 %49, ptr %50, align 8
  %51 = load ptr, ptr %5, align 8
  %52 = getelementptr inbounds nuw %struct.RelationData, ptr %51, i32 0, i32 14
  %53 = load ptr, ptr %52, align 8
  %54 = getelementptr inbounds [2 x i64], ptr %11, i64 0, i64 0
  %55 = getelementptr inbounds [2 x i8], ptr %10, i64 0, i64 0
  %56 = call ptr @heap_form_tuple(ptr noundef %53, ptr noundef %54, ptr noundef %55)
  store ptr %56, ptr %4, align 8
  %57 = load ptr, ptr %5, align 8
  %58 = load ptr, ptr %4, align 8
  call void @CatalogTupleInsert(ptr noundef %57, ptr noundef %58)
  call void @CommandCounterIncrement()
  store i32 2, ptr %13, align 4
  br label %60

59:                                               ; preds = %33
  store i32 0, ptr %13, align 4
  br label %60

60:                                               ; preds = %59, %45
  call void @llvm.lifetime.end.p0(i64 1, ptr %12) #9
  call void @llvm.lifetime.end.p0(i64 16, ptr %11) #9
  call void @llvm.lifetime.end.p0(i64 2, ptr %10) #9
  %61 = load i32, ptr %13, align 4
  switch i32 %61, label %86 [
    i32 0, label %62
    i32 2, label %66
  ]

62:                                               ; preds = %60
  br label %63

63:                                               ; preds = %62
  %64 = load i32, ptr %3, align 4
  %65 = add i32 %64, 1
  store i32 %65, ptr %3, align 4
  br label %19, !llvm.loop !6

66:                                               ; preds = %60, %19
  %67 = load ptr, ptr %5, align 8
  call void @table_close(ptr noundef %67, i32 noundef 7)
  %68 = load ptr, ptr %4, align 8
  %69 = icmp eq ptr %68, null
  br i1 %69, label %70, label %82

70:                                               ; preds = %66
  br label %71

71:                                               ; preds = %70
  br i1 true, label %72, label %74

72:                                               ; preds = %71
  %73 = call zeroext i1 @errstart_cold(i32 noundef 21, ptr noundef null) #10
  br i1 %73, label %76, label %79

74:                                               ; preds = %71
  %75 = call zeroext i1 @errstart(i32 noundef 21, ptr noundef null)
  br i1 %75, label %76, label %79

76:                                               ; preds = %74, %72
  %77 = call i32 @errcode(i32 noundef 261)
  %78 = call i32 (ptr, ...) @errmsg(ptr noundef @.str.2)
  call void @errfinish(ptr noundef @.str.1, i32 noundef 335, ptr noundef @__func__.replorigin_create)
  br label %79

79:                                               ; preds = %76, %74, %72
  unreachable

80:                                               ; No predecessors!
  br label %81

81:                                               ; preds = %80
  br label %82

82:                                               ; preds = %81, %66
  %83 = load ptr, ptr %4, align 8
  call void @heap_freetuple(ptr noundef %83)
  %84 = load i32, ptr %3, align 4
  %85 = trunc i32 %84 to i16
  store i32 1, ptr %13, align 4
  call void @llvm.lifetime.end.p0(i64 72, ptr %9) #9
  call void @llvm.lifetime.end.p0(i64 8, ptr %8) #9
  call void @llvm.lifetime.end.p0(i64 104, ptr %7) #9
  call void @llvm.lifetime.end.p0(i64 8, ptr %6) #9
  call void @llvm.lifetime.end.p0(i64 8, ptr %5) #9
  call void @llvm.lifetime.end.p0(i64 8, ptr %4) #9
  call void @llvm.lifetime.end.p0(i64 4, ptr %3) #9
  ret i16 %85

86:                                               ; preds = %60
  unreachable
}