; Function Attrs: nounwind uwtable
define dso_local zeroext range(i16 0, -1) i16 @replorigin_create(ptr noundef %0) local_unnamed_addr #0 {
  %2 = alloca %struct.SnapshotData, align 8
  %3 = alloca %struct.ScanKeyData, align 8
  %4 = alloca [2 x i8], align 2
  %5 = alloca [2 x i64], align 16
  call void @llvm.lifetime.start.p0(i64 104, ptr nonnull %2) #10
  call void @llvm.lifetime.start.p0(i64 72, ptr nonnull %3) #10
  %6 = tail call ptr @cstring_to_text(ptr noundef %0) #10
  %7 = ptrtoint ptr %6 to i64
  store i32 4, ptr %2, align 8
  %8 = tail call ptr @table_open(i32 noundef 6000, i32 noundef 7) #10
  br label %9

.thread24:                                        ; preds = %15
  call void @table_close(ptr noundef %8, i32 noundef 7) #10
  br label %22

9:                                                ; preds = %1, %15
  %indvars.iv = phi i64 [ 1, %1 ], [ %indvars.iv.next, %15 ]
  call void @llvm.lifetime.start.p0(i64 2, ptr nonnull %4) #10
  call void @llvm.lifetime.start.p0(i64 16, ptr nonnull %5) #10
  %10 = load volatile i32, ptr @InterruptPending, align 4
  %.not = icmp eq i32 %10, 0
  br i1 %.not, label %12, label %11, !prof !4

11:                                               ; preds = %9
  call void @ProcessInterrupts() #10
  br label %12

12:                                               ; preds = %11, %9
  call void @ScanKeyInit(ptr noundef nonnull %3, i16 noundef signext 1, i16 noundef zeroext 3, i32 noundef 184, i64 noundef %indvars.iv) #10
  %13 = call ptr @systable_beginscan(ptr noundef %8, i32 noundef 6001, i1 noundef zeroext true, ptr noundef nonnull %2, i32 noundef 1, ptr noundef nonnull %3) #10
  %14 = call ptr @systable_getnext(ptr noundef %13) #10
  %.not19 = icmp eq ptr %14, null
  call void @systable_endscan(ptr noundef %13) #10
  br i1 %.not19, label %16, label %15

15:                                               ; preds = %12
  call void @llvm.lifetime.end.p0(i64 16, ptr nonnull %5) #10
  call void @llvm.lifetime.end.p0(i64 2, ptr nonnull %4) #10
  %indvars.iv.next = add nuw nsw i64 %indvars.iv, 1
  %exitcond.not = icmp eq i64 %indvars.iv.next, 65535
  br i1 %exitcond.not, label %.thread24, label %9, !llvm.loop !5

16:                                               ; preds = %12
  store i16 0, ptr %4, align 2
  store i64 %indvars.iv, ptr %5, align 16
  %17 = getelementptr inbounds nuw i8, ptr %5, i64 8
  store i64 %7, ptr %17, align 8
  %18 = getelementptr inbounds nuw i8, ptr %8, i64 64
  %19 = load ptr, ptr %18, align 8
  %20 = call ptr @heap_form_tuple(ptr noundef %19, ptr noundef nonnull %5, ptr noundef nonnull %4) #10
  call void @CatalogTupleInsert(ptr noundef %8, ptr noundef %20) #10
  call void @CommandCounterIncrement() #10
  call void @llvm.lifetime.end.p0(i64 16, ptr nonnull %5) #10
  call void @llvm.lifetime.end.p0(i64 2, ptr nonnull %4) #10
  call void @table_close(ptr noundef %8, i32 noundef 7) #10
  %21 = icmp eq ptr %20, null
  br i1 %21, label %22, label %26

22:                                               ; preds = %.thread24, %16
  %23 = call zeroext i1 @errstart_cold(i32 noundef 21, ptr noundef null) #11
  call void @llvm.assume(i1 %23)
  %24 = call i32 @errcode(i32 noundef 261) #10
  %25 = call i32 (ptr, ...) @errmsg(ptr noundef nonnull @.str.2) #10
  call void @errfinish(ptr noundef nonnull @.str.1, i32 noundef 335, ptr noundef nonnull @__func__.replorigin_create) #10
  unreachable

26:                                               ; preds = %16
  call void @heap_freetuple(ptr noundef nonnull %20) #10
  %27 = trunc i64 %indvars.iv to i16
  call void @llvm.lifetime.end.p0(i64 72, ptr nonnull %3) #10
  call void @llvm.lifetime.end.p0(i64 104, ptr nonnull %2) #10
  ret i16 %27
}